; Function Attrs: mustprogress nofree norecurse nosync nounwind willreturn memory(argmem: read) uwtable
define hidden noundef nonnull align 8 dereferenceable(16) ptr @_ZN10polynomial7manager10numeral_lcEPKNS_10polynomialEj(ptr nocapture noundef nonnull readonly align 8 dereferenceable(8) %this, ptr nocapture noundef readonly %p, i32 noundef %x) local_unnamed_addr #5 align 2 {
entry:
  %m_size.i.i = getelementptr inbounds i8, ptr %p, i64 8
  %0 = load i32, ptr %m_size.i.i, align 8
  %cmp.i = icmp eq i32 %0, 0
  br i1 %cmp.i, label %if.then.i, label %if.else.i

if.then.i:                                        ; preds = %entry
  %1 = load ptr, ptr %this, align 8
  %m_zero_numeral.i = getelementptr inbounds i8, ptr %1, i64 512
  br label %_ZN10polynomial7manager3imp10numeral_lcEPKNS_10polynomialEj.exit

if.else.i:                                        ; preds = %entry
  %m_as.i.i = getelementptr inbounds i8, ptr %p, i64 16
  %2 = load ptr, ptr %m_as.i.i, align 8
  br label %_ZN10polynomial7manager3imp10numeral_lcEPKNS_10polynomialEj.exit

_ZN10polynomial7manager3imp10numeral_lcEPKNS_10polynomialEj.exit: ; preds = %if.then.i, %if.else.i
  %retval.0.i = phi ptr [ %m_zero_numeral.i, %if.then.i ], [ %2, %if.else.i ]
  ret ptr %retval.0.i
}